target datalayout = "e-m:e-p270:32:32-p271:32:32-p272:64:64-i64:64-i128:128-f80:128-n8:16:32:64-S128"
target triple = "x86_64-pc-linux-gnu"

; Function Attrs: nounwind uwtable
define i32 @uriParseUriExW(ptr noundef %0, ptr noundef %1, ptr noundef %2) #0 {
  %4 = alloca ptr, align 8
  %5 = alloca ptr, align 8
  %6 = alloca ptr, align 8
  store ptr %0, ptr %4, align 8, !tbaa !59
  store ptr %1, ptr %5, align 8, !tbaa !61
  store ptr %2, ptr %6, align 8, !tbaa !61
  %7 = load ptr, ptr %4, align 8, !tbaa !59
  %8 = load ptr, ptr %5, align 8, !tbaa !61
  %9 = load ptr, ptr %6, align 8, !tbaa !61
  %10 = call i32 @uriParseUriExMmW(ptr noundef %7, ptr noundef %8, ptr noundef %9, ptr noundef null)
  ret i32 %10
}

; Function Attrs: nounwind uwtable
define i32 @uriParseUriW(ptr noundef %0, ptr noundef %1) #0 {
  %3 = alloca i32, align 4
  %4 = alloca ptr, align 8
  %5 = alloca ptr, align 8
  store ptr %0, ptr %4, align 8, !tbaa !59
  store ptr %1, ptr %5, align 8, !tbaa !61
  %6 = load ptr, ptr %4, align 8, !tbaa !59
  %7 = icmp eq ptr %6, null
  br i1 %7, label %11, label %8

8:                                                ; preds = %2
  %9 = load ptr, ptr %5, align 8, !tbaa !61
  %10 = icmp eq ptr %9, null
  br i1 %10, label %11, label %12

11:                                               ; preds = %8, %2
  store i32 2, ptr %3, align 4
  br label %20

12:                                               ; preds = %8
  %13 = load ptr, ptr %4, align 8, !tbaa !59
  %14 = load ptr, ptr %5, align 8, !tbaa !61
  %15 = load ptr, ptr %5, align 8, !tbaa !61
  %16 = load ptr, ptr %5, align 8, !tbaa !61
  %17 = call i64 @wcslen(ptr noundef %16) #8
  %18 = getelementptr inbounds nuw i32, ptr %15, i64 %17
  %19 = call i32 @uriParseUriExW(ptr noundef %13, ptr noundef %14, ptr noundef %18)
  store i32 %19, ptr %3, align 4
  br label %20

20:                                               ; preds = %12, %11
  %21 = load i32, ptr %3, align 4
  ret i32 %21
}